target datalayout = "e-m:e-p270:32:32-p271:32:32-p272:64:64-i64:64-i128:128-f80:128-n8:16:32:64-S128"
target triple = "x86_64-pc-linux-gnu"

%struct.PJ_XY = type { double, double }
%struct.PJ_LP = type { double, double }
%union.PJ_COORD = type { [4 x double] }
%struct.PJ_XYZ = type { double, double, double }
%struct.PJ_LPZ = type { double, double, double }
%struct.PJconsts = type { ptr, ptr, ptr, ptr, ptr, ptr, ptr, ptr, ptr, ptr, ptr, ptr, i32, ptr, ptr, ptr, ptr, ptr, ptr, ptr, ptr, double, double, double, double, double, double, double, double, double, double, double, double, double, double, double, double, double, double, double, double, double, double, i32, i32, i32, i32, i32, i32, i32, i32, i32, i32, i32, ptr, ptr, ptr, ptr, ptr, ptr, double, double, double, double, double, double, double, double, double, double, double, i32, [7 x double], i32, ptr, ptr, double, double, i32, [4 x i8], %"class.std::shared_ptr", i8, double, i8, %"class.std::__cxx11::basic_string", %"class.std::__cxx11::basic_string", %"class.std::__cxx11::basic_string", i8, %"class.std::vector", i32, %"class.std::vector.3", i32, i8, i8, i8, ptr }
%"class.std::shared_ptr" = type { %"class.std::__shared_ptr" }
%"class.std::__shared_ptr" = type { ptr, %"class.std::__shared_count" }
%"class.std::__shared_count" = type { ptr }
%"class.std::__cxx11::basic_string" = type { %"struct.std::__cxx11::basic_string<char>::_Alloc_hider", i64, %union.anon }
%"struct.std::__cxx11::basic_string<char>::_Alloc_hider" = type { ptr }
%union.anon = type { i64, [8 x i8] }
%"class.std::vector" = type { %"struct.std::_Vector_base" }
%"struct.std::_Vector_base" = type { %"struct.std::_Vector_base<osgeo::proj::operation::GridDescription, std::allocator<osgeo::proj::operation::GridDescription>>::_Vector_impl" }
%"struct.std::_Vector_base<osgeo::proj::operation::GridDescription, std::allocator<osgeo::proj::operation::GridDescription>>::_Vector_impl" = type { %"struct.std::_Vector_base<osgeo::proj::operation::GridDescription, std::allocator<osgeo::proj::operation::GridDescription>>::_Vector_impl_data" }
%"struct.std::_Vector_base<osgeo::proj::operation::GridDescription, std::allocator<osgeo::proj::operation::GridDescription>>::_Vector_impl_data" = type { ptr, ptr, ptr }
%"class.std::vector.3" = type { %"struct.std::_Vector_base.4" }
%"struct.std::_Vector_base.4" = type { %"struct.std::_Vector_base<PJCoordOperation, std::allocator<PJCoordOperation>>::_Vector_impl" }
%"struct.std::_Vector_base<PJCoordOperation, std::allocator<PJCoordOperation>>::_Vector_impl" = type { %"struct.std::_Vector_base<PJCoordOperation, std::allocator<PJCoordOperation>>::_Vector_impl_data" }
%"struct.std::_Vector_base<PJCoordOperation, std::allocator<PJCoordOperation>>::_Vector_impl_data" = type { ptr, ptr, ptr }
%struct.pj_ctx = type <{ %"class.std::__cxx11::basic_string", i32, i32, i8, i8, [6 x i8], ptr, ptr, ptr, i32, i8, [3 x i8], i32, [4 x i8], %"class.std::__cxx11::basic_string", %"class.std::vector.8", ptr, ptr, ptr, %"class.std::map", i8, [7 x i8], %struct.projFileApiCallbackAndData, %"class.std::__cxx11::basic_string", %"class.std::__cxx11::basic_string", i8, [7 x i8], %"class.std::__cxx11::basic_string", %struct.projNetworkCallbacksAndData, %"class.std::__cxx11::basic_string", i8, [7 x i8], %struct.projGridChunkCache, i32, i32, i32, [4 x i8] }>
%"class.std::vector.8" = type { %"struct.std::_Vector_base.9" }
%"struct.std::_Vector_base.9" = type { %"struct.std::_Vector_base<std::__cxx11::basic_string<char>, std::allocator<std::__cxx11::basic_string<char>>>::_Vector_impl" }
%"struct.std::_Vector_base<std::__cxx11::basic_string<char>, std::allocator<std::__cxx11::basic_string<char>>>::_Vector_impl" = type { %"struct.std::_Vector_base<std::__cxx11::basic_string<char>, std::allocator<std::__cxx11::basic_string<char>>>::_Vector_impl_data" }
%"struct.std::_Vector_base<std::__cxx11::basic_string<char>, std::allocator<std::__cxx11::basic_string<char>>>::_Vector_impl_data" = type { ptr, ptr, ptr }
%"class.std::map" = type { %"class.std::_Rb_tree" }
%"class.std::_Rb_tree" = type { %"struct.std::_Rb_tree<std::__cxx11::basic_string<char>, std::pair<const std::__cxx11::basic_string<char>, std::__cxx11::basic_string<char>>, std::_Select1st<std::pair<const std::__cxx11::basic_string<char>, std::__cxx11::basic_string<char>>>, std::less<std::__cxx11::basic_string<char>>>::_Rb_tree_impl" }
%"struct.std::_Rb_tree<std::__cxx11::basic_string<char>, std::pair<const std::__cxx11::basic_string<char>, std::__cxx11::basic_string<char>>, std::_Select1st<std::pair<const std::__cxx11::basic_string<char>, std::__cxx11::basic_string<char>>>, std::less<std::__cxx11::basic_string<char>>>::_Rb_tree_impl" = type { [8 x i8], %"struct.std::_Rb_tree_header" }
%"struct.std::_Rb_tree_header" = type { %"struct.std::_Rb_tree_node_base", i64 }
%"struct.std::_Rb_tree_node_base" = type { i32, ptr, ptr, ptr }
%struct.projFileApiCallbackAndData = type { ptr, ptr, ptr, ptr, ptr, ptr, ptr, ptr, ptr, ptr, ptr }
%struct.projNetworkCallbacksAndData = type { i8, ptr, ptr, ptr, ptr, ptr }
%struct.projGridChunkCache = type <{ i8, [7 x i8], %"class.std::__cxx11::basic_string", i64, i32, [4 x i8] }>

; Function Attrs: inlinehint mustprogress uwtable
define internal void @_ZL14error_or_coordP8PJconsts8PJ_COORDi(ptr dead_on_unwind noalias writable sret(%union.PJ_COORD) align 8 %0, ptr noundef %1, ptr noundef byval(%union.PJ_COORD) align 8 %2, i32 noundef %3) #5 {
  %5 = alloca ptr, align 8
  %6 = alloca i32, align 4
  store ptr %1, ptr %5, align 8, !tbaa !3
  store i32 %3, ptr %6, align 4, !tbaa !63
  %7 = load ptr, ptr %5, align 8, !tbaa !3
  %8 = getelementptr inbounds nuw %struct.PJconsts, ptr %7, i32 0, i32 0
  %9 = load ptr, ptr %8, align 8, !tbaa !11
  %10 = getelementptr inbounds nuw %struct.pj_ctx, ptr %9, i32 0, i32 1
  %11 = load i32, ptr %10, align 8, !tbaa !39
  %12 = icmp ne i32 %11, 0
  br i1 %12, label %13, label %14

13:                                               ; preds = %4
  call void @_Z16proj_coord_errorv(ptr dead_on_unwind writable sret(%union.PJ_COORD) align 8 %0)
  br label %20

14:                                               ; preds = %4
  %15 = load i32, ptr %6, align 4, !tbaa !63
  %16 = load ptr, ptr %5, align 8, !tbaa !3
  %17 = getelementptr inbounds nuw %struct.PJconsts, ptr %16, i32 0, i32 0
  %18 = load ptr, ptr %17, align 8, !tbaa !11
  %19 = getelementptr inbounds nuw %struct.pj_ctx, ptr %18, i32 0, i32 1
  store i32 %15, ptr %19, align 8, !tbaa !39
  call void @llvm.memcpy.p0.p0.i64(ptr align 8 %0, ptr align 8 %2, i64 32, i1 false), !tbaa.struct !71
  br label %20

20:                                               ; preds = %14, %13
  ret void
}

; Function Attrs: mustprogress uwtable
define hidden void @_Z8pj_fwd3d6PJ_LPZP8PJconsts(ptr dead_on_unwind noalias writable sret(%struct.PJ_XYZ) align 8 %0, ptr noundef byval(%struct.PJ_LPZ) align 8 %1, ptr noundef %2) #0 {
  %4 = alloca ptr, align 8
  %5 = alloca %union.PJ_COORD, align 8
  %6 = alloca i32, align 4
  %7 = alloca %union.PJ_COORD, align 8
  %8 = alloca i32, align 4
  %9 = alloca %struct.PJ_XYZ, align 8
  %10 = alloca %struct.PJ_LPZ, align 8
  %11 = alloca %struct.PJ_XY, align 8
  %12 = alloca %struct.PJ_LP, align 8
  %13 = alloca %union.PJ_COORD, align 8
  %14 = alloca %union.PJ_COORD, align 8
  %15 = alloca %union.PJ_COORD, align 8
  %16 = alloca %union.PJ_COORD, align 8
  store ptr %2, ptr %4, align 8, !tbaa !3
  call void @llvm.lifetime.start.p0(i64 32, ptr %5) #6
  call void @llvm.memset.p0.i64(ptr align 8 %5, i8 0, i64 32, i1 false)
  call void @llvm.memcpy.p0.p0.i64(ptr align 8 %5, ptr align 8 %1, i64 24, i1 false), !tbaa.struct !68
  call void @llvm.lifetime.start.p0(i64 4, ptr %6) #6
  %17 = load ptr, ptr %4, align 8, !tbaa !3
  %18 = getelementptr inbounds nuw %struct.PJconsts, ptr %17, i32 0, i32 0
  %19 = load ptr, ptr %18, align 8, !tbaa !11
  %20 = getelementptr inbounds nuw %struct.pj_ctx, ptr %19, i32 0, i32 1
  %21 = load i32, ptr %20, align 8, !tbaa !39
  store i32 %21, ptr %6, align 4, !tbaa !63
  %22 = load ptr, ptr %4, align 8, !tbaa !3
  %23 = getelementptr inbounds nuw %struct.PJconsts, ptr %22, i32 0, i32 0
  %24 = load ptr, ptr %23, align 8, !tbaa !11
  %25 = getelementptr inbounds nuw %struct.pj_ctx, ptr %24, i32 0, i32 1
  store i32 0, ptr %25, align 8, !tbaa !39
  %26 = load ptr, ptr %4, align 8, !tbaa !3
  %27 = getelementptr inbounds nuw %struct.PJconsts, ptr %26, i32 0, i32 48
  %28 = load i32, ptr %27, align 4, !tbaa !64
  %29 = icmp ne i32 %28, 0
  br i1 %29, label %32, label %30

30:                                               ; preds = %3
  %31 = load ptr, ptr %4, align 8, !tbaa !3
  call void @_ZL11fwd_prepareP8PJconstsR8PJ_COORD(ptr noundef %31, ptr noundef nonnull align 8 dereferenceable(32) %5)
  br label %32

32:                                               ; preds = %30, %3
  %33 = getelementptr inbounds [4 x double], ptr %5, i64 0, i64 0
  %34 = load double, ptr %33, align 8, !tbaa !65
  %35 = fcmp oeq double 0x7FF0000000000000, %34
  br i1 %35, label %36, label %37

36:                                               ; preds = %32
  call void @llvm.lifetime.start.p0(i64 32, ptr %7) #6
  call void @_Z16proj_coord_errorv(ptr dead_on_unwind writable sret(%union.PJ_COORD) align 8 %7)
  call void @llvm.memcpy.p0.p0.i64(ptr align 8 %0, ptr align 8 %7, i64 24, i1 false), !tbaa.struct !68
  call void @llvm.lifetime.end.p0(i64 32, ptr %7) #6
  store i32 1, ptr %8, align 4
  br label %96

37:                                               ; preds = %32
  %38 = load ptr, ptr %4, align 8, !tbaa !3
  %39 = getelementptr inbounds nuw %struct.PJconsts, ptr %38, i32 0, i32 15
  %40 = load ptr, ptr %39, align 8, !tbaa !67
  %41 = icmp ne ptr %40, null
  br i1 %41, label %42, label %47

42:                                               ; preds = %37
  call void @llvm.lifetime.start.p0(i64 24, ptr %9) #6
  %43 = load ptr, ptr %4, align 8, !tbaa !3
  %44 = getelementptr inbounds nuw %struct.PJconsts, ptr %43, i32 0, i32 15
  %45 = load ptr, ptr %44, align 8, !tbaa !67
  call void @llvm.memcpy.p0.p0.i64(ptr align 8 %10, ptr align 8 %5, i64 24, i1 false), !tbaa.struct !68
  %46 = load ptr, ptr %4, align 8, !tbaa !3
  call void %45(ptr dead_on_unwind writable sret(%struct.PJ_XYZ) align 8 %9, ptr noundef byval(%struct.PJ_LPZ) align 8 %10, ptr noundef %46)
  call void @llvm.memcpy.p0.p0.i64(ptr align 8 %5, ptr align 8 %9, i64 24, i1 false), !tbaa.struct !68
  call void @llvm.lifetime.end.p0(i64 24, ptr %9) #6
  br label %81

47:                                               ; preds = %37
  %48 = load ptr, ptr %4, align 8, !tbaa !3
  %49 = getelementptr inbounds nuw %struct.PJconsts, ptr %48, i32 0, i32 17
  %50 = load ptr, ptr %49, align 8, !tbaa !69
  %51 = icmp ne ptr %50, null
  br i1 %51, label %52, label %57

52:                                               ; preds = %47
  %53 = load ptr, ptr %4, align 8, !tbaa !3
  %54 = getelementptr inbounds nuw %struct.PJconsts, ptr %53, i32 0, i32 17
  %55 = load ptr, ptr %54, align 8, !tbaa !69
  %56 = load ptr, ptr %4, align 8, !tbaa !3
  call void %55(ptr noundef nonnull align 8 dereferenceable(32) %5, ptr noundef %56)
  br label %80

57:                                               ; preds = %47
  %58 = load ptr, ptr %4, align 8, !tbaa !3
  %59 = getelementptr inbounds nuw %struct.PJconsts, ptr %58, i32 0, i32 13
  %60 = load ptr, ptr %59, align 8, !tbaa !66
  %61 = icmp ne ptr %60, null
  br i1 %61, label %62, label %76

62:                                               ; preds = %57
  call void @llvm.lifetime.start.p0(i64 16, ptr %11) #6
  %63 = load ptr, ptr %4, align 8, !tbaa !3
  %64 = getelementptr inbounds nuw %struct.PJconsts, ptr %63, i32 0, i32 13
  %65 = load ptr, ptr %64, align 8, !tbaa !66
  call void @llvm.memcpy.p0.p0.i64(ptr align 8 %12, ptr align 8 %5, i64 16, i1 false), !tbaa.struct !8
  %66 = load ptr, ptr %4, align 8, !tbaa !3
  %67 = getelementptr inbounds nuw { double, double }, ptr %12, i32 0, i32 0
  %68 = load double, ptr %67, align 8
  %69 = getelementptr inbounds nuw { double, double }, ptr %12, i32 0, i32 1
  %70 = load double, ptr %69, align 8
  %71 = call { double, double } %65(double %68, double %70, ptr noundef %66)
  %72 = getelementptr inbounds nuw { double, double }, ptr %11, i32 0, i32 0
  %73 = extractvalue { double, double } %71, 0
  store double %73, ptr %72, align 8
  %74 = getelementptr inbounds nuw { double, double }, ptr %11, i32 0, i32 1
  %75 = extractvalue { double, double } %71, 1
  store double %75, ptr %74, align 8
  call void @llvm.memcpy.p0.p0.i64(ptr align 8 %5, ptr align 8 %11, i64 16, i1 false), !tbaa.struct !8
  call void @llvm.lifetime.end.p0(i64 16, ptr %11) #6
  br label %79

76:                                               ; preds = %57
  %77 = load ptr, ptr %4, align 8, !tbaa !3
  %78 = call i32 @proj_errno_set(ptr noundef %77, i32 noundef 4098)
  call void @llvm.lifetime.start.p0(i64 32, ptr %13) #6
  call void @_Z16proj_coord_errorv(ptr dead_on_unwind writable sret(%union.PJ_COORD) align 8 %13)
  call void @llvm.memcpy.p0.p0.i64(ptr align 8 %0, ptr align 8 %13, i64 24, i1 false), !tbaa.struct !68
  call void @llvm.lifetime.end.p0(i64 32, ptr %13) #6
  store i32 1, ptr %8, align 4
  br label %96

79:                                               ; preds = %62
  br label %80

80:                                               ; preds = %79, %52
  br label %81

81:                                               ; preds = %80, %42
  %82 = getelementptr inbounds [4 x double], ptr %5, i64 0, i64 0
  %83 = load double, ptr %82, align 8, !tbaa !65
  %84 = fcmp oeq double 0x7FF0000000000000, %83
  br i1 %84, label %85, label %86

85:                                               ; preds = %81
  call void @llvm.lifetime.start.p0(i64 32, ptr %14) #6
  call void @_Z16proj_coord_errorv(ptr dead_on_unwind writable sret(%union.PJ_COORD) align 8 %14)
  call void @llvm.memcpy.p0.p0.i64(ptr align 8 %0, ptr align 8 %14, i64 24, i1 false), !tbaa.struct !68
  call void @llvm.lifetime.end.p0(i64 32, ptr %14) #6
  store i32 1, ptr %8, align 4
  br label %96

86:                                               ; preds = %81
  %87 = load ptr, ptr %4, align 8, !tbaa !3
  %88 = getelementptr inbounds nuw %struct.PJconsts, ptr %87, i32 0, i32 49
  %89 = load i32, ptr %88, align 8, !tbaa !70
  %90 = icmp ne i32 %89, 0
  br i1 %90, label %93, label %91

91:                                               ; preds = %86
  %92 = load ptr, ptr %4, align 8, !tbaa !3
  call void @_ZL12fwd_finalizeP8PJconstsR8PJ_COORD(ptr noundef %92, ptr noundef nonnull align 8 dereferenceable(32) %5)
  br label %93

93:                                               ; preds = %91, %86
  call void @llvm.lifetime.start.p0(i64 32, ptr %15) #6
  %94 = load ptr, ptr %4, align 8, !tbaa !3
  call void @llvm.memcpy.p0.p0.i64(ptr align 8 %16, ptr align 8 %5, i64 32, i1 false), !tbaa.struct !71
  %95 = load i32, ptr %6, align 4, !tbaa !63
  call void @_ZL14error_or_coordP8PJconsts8PJ_COORDi(ptr dead_on_unwind writable sret(%union.PJ_COORD) align 8 %15, ptr noundef %94, ptr noundef byval(%union.PJ_COORD) align 8 %16, i32 noundef %95)
  call void @llvm.memcpy.p0.p0.i64(ptr align 8 %0, ptr align 8 %15, i64 24, i1 false), !tbaa.struct !68
  call void @llvm.lifetime.end.p0(i64 32, ptr %15) #6
  store i32 1, ptr %8, align 4
  br label %96

96:                                               ; preds = %93, %85, %76, %36
  call void @llvm.lifetime.end.p0(i64 4, ptr %6) #6
  call void @llvm.lifetime.end.p0(i64 32, ptr %5) #6
  ret void
}